target datalayout = "e-m:e-p270:32:32-p271:32:32-p272:64:64-i64:64-i128:128-f80:128-n8:16:32:64-S128"
target triple = "x86_64-pc-linux-gnu"

%struct.url_check = type { %struct.string, %struct.string, %struct.pre_fixup_info, i16, i16, i16 }
%struct.string = type { ptr, ptr, i32 }
%struct.pre_fixup_info = type { %struct.string, i64, i64 }

; Function Attrs: nounwind uwtable
define internal void @url_get_domain(ptr noundef %0, ptr noundef %1) #0 {
  %3 = alloca ptr, align 8
  %4 = alloca ptr, align 8
  store ptr %0, ptr %3, align 8
  store ptr %1, ptr %4, align 8
  %5 = load ptr, ptr %4, align 8
  %6 = getelementptr inbounds %struct.url_check, ptr %5, i32 0, i32 0
  %7 = load ptr, ptr %3, align 8
  %8 = getelementptr inbounds %struct.url_check, ptr %7, i32 0, i32 0
  call void @get_domain(ptr noundef %6, ptr noundef %8)
  %9 = load ptr, ptr %4, align 8
  %10 = getelementptr inbounds %struct.url_check, ptr %9, i32 0, i32 1
  %11 = load ptr, ptr %3, align 8
  %12 = getelementptr inbounds %struct.url_check, ptr %11, i32 0, i32 1
  call void @get_domain(ptr noundef %10, ptr noundef %12)
  %13 = load ptr, ptr %3, align 8
  %14 = getelementptr inbounds %struct.url_check, ptr %13, i32 0, i32 3
  %15 = load i16, ptr %14, align 8
  %16 = load ptr, ptr %4, align 8
  %17 = getelementptr inbounds %struct.url_check, ptr %16, i32 0, i32 3
  store i16 %15, ptr %17, align 8
  ret void
}