; Function Attrs: nounwind uwtable
define internal fastcc void @url_get_domain(ptr noundef %0, ptr nocapture noundef %1) unnamed_addr #0 {
  tail call fastcc void @get_domain(ptr noundef %1, ptr noundef %0)
  %3 = getelementptr inbounds i8, ptr %1, i64 24
  %4 = getelementptr inbounds i8, ptr %0, i64 24
  tail call fastcc void @get_domain(ptr noundef nonnull %3, ptr noundef nonnull %4)
  %5 = getelementptr inbounds i8, ptr %0, i64 88
  %6 = load i16, ptr %5, align 8
  %7 = getelementptr inbounds i8, ptr %1, i64 88
  store i16 %6, ptr %7, align 8
  ret void
}